; Function Attrs: mustprogress uwtable
define internal noundef nonnull ptr @_ZL21cmCreateNewSourceFilePv(ptr nocapture readnone %0) #6 {
  %2 = tail call noalias noundef nonnull dereferenceable(184) ptr @_Znwm(i64 noundef 184) #31
  store ptr null, ptr %2, align 8
  %3 = getelementptr inbounds i8, ptr %2, i64 8
  tail call void @_ZNSt7__cxx1112basic_stringIcSt11char_traitsIcESaIcEEC1Ev(ptr noundef nonnull align 8 dereferenceable(32) %3) #30
  %4 = getelementptr inbounds i8, ptr %2, i64 40
  tail call void @_ZNSt7__cxx1112basic_stringIcSt11char_traitsIcESaIcEEC1Ev(ptr noundef nonnull align 8 dereferenceable(32) %4) #30
  %5 = getelementptr inbounds i8, ptr %2, i64 72
  tail call void @_ZNSt7__cxx1112basic_stringIcSt11char_traitsIcESaIcEEC1Ev(ptr noundef nonnull align 8 dereferenceable(32) %5) #30
  %6 = getelementptr inbounds i8, ptr %2, i64 104
  tail call void @llvm.memset.p0.i64(ptr noundef nonnull align 8 dereferenceable(24) %6, i8 0, i64 24, i1 false)
  %7 = getelementptr inbounds i8, ptr %2, i64 128
  %8 = getelementptr inbounds i8, ptr %2, i64 176
  store ptr %8, ptr %7, align 8
  %9 = getelementptr inbounds i8, ptr %2, i64 136
  store i64 1, ptr %9, align 8
  %10 = getelementptr inbounds i8, ptr %2, i64 144
  %11 = getelementptr inbounds i8, ptr %2, i64 160
  tail call void @llvm.memset.p0.i64(ptr noundef nonnull align 8 dereferenceable(16) %10, i8 0, i64 16, i1 false)
  store float 1.000000e+00, ptr %11, align 8
  %12 = getelementptr inbounds i8, ptr %2, i64 168
  tail call void @llvm.memset.p0.i64(ptr noundef nonnull align 8 dereferenceable(16) %12, i8 0, i64 16, i1 false)
  ret ptr %2
}